; Function Attrs: nounwind uwtable
define i32 @png_get_pixels_per_inch(ptr noalias noundef readnone %0, ptr noalias noundef readonly %1) local_unnamed_addr #1 {
  %3 = alloca i32, align 4
  %4 = icmp ne ptr %0, null
  %5 = icmp ne ptr %1, null
  %or.cond.i = and i1 %4, %5
  br i1 %or.cond.i, label %6, label %png_get_pixels_per_meter.exit.thread

6:                                                ; preds = %2
  %7 = getelementptr inbounds i8, ptr %1, i64 8
  %8 = load i32, ptr %7, align 8, !alias.scope !4, !noalias !7
  %9 = and i32 %8, 128
  %.not.i = icmp eq i32 %9, 0
  br i1 %.not.i, label %png_get_pixels_per_meter.exit.thread, label %10

10:                                               ; preds = %6
  %11 = getelementptr inbounds i8, ptr %1, i64 232
  %12 = load i8, ptr %11, align 8, !alias.scope !4, !noalias !7
  %13 = icmp eq i8 %12, 1
  br i1 %13, label %14, label %png_get_pixels_per_meter.exit.thread

14:                                               ; preds = %10
  %15 = getelementptr inbounds i8, ptr %1, i64 224
  %16 = load i32, ptr %15, align 8, !alias.scope !4, !noalias !7
  %17 = getelementptr inbounds i8, ptr %1, i64 228
  %18 = load i32, ptr %17, align 4, !alias.scope !4, !noalias !7
  %19 = icmp eq i32 %16, %18
  br i1 %19, label %png_get_pixels_per_meter.exit, label %png_get_pixels_per_meter.exit.thread

png_get_pixels_per_meter.exit.thread:             ; preds = %2, %6, %10, %14
  call void @llvm.lifetime.start.p0(i64 4, ptr nonnull %3)
  br label %21

png_get_pixels_per_meter.exit:                    ; preds = %14
  call void @llvm.lifetime.start.p0(i64 4, ptr nonnull %3)
  %20 = icmp sgt i32 %16, -1
  br i1 %20, label %21, label %ppi_from_ppm.exit

21:                                               ; preds = %png_get_pixels_per_meter.exit.thread, %png_get_pixels_per_meter.exit
  %.0.i5 = phi i32 [ 0, %png_get_pixels_per_meter.exit.thread ], [ %16, %png_get_pixels_per_meter.exit ]
  %22 = call i32 @png_muldiv(ptr noundef nonnull %3, i32 noundef %.0.i5, i32 noundef 127, i32 noundef 5000) #10
  %.not.i3 = icmp eq i32 %22, 0
  %23 = load i32, ptr %3, align 4
  %spec.select.i = select i1 %.not.i3, i32 0, i32 %23
  br label %ppi_from_ppm.exit

ppi_from_ppm.exit:                                ; preds = %png_get_pixels_per_meter.exit, %21
  %.0.i2 = phi i32 [ 0, %png_get_pixels_per_meter.exit ], [ %spec.select.i, %21 ]
  call void @llvm.lifetime.end.p0(i64 4, ptr nonnull %3)
  ret i32 %.0.i2
}